; Function Attrs: mustprogress nofree norecurse nosync nounwind willreturn memory(read, inaccessiblemem: none) uwtable
define dso_local noundef zeroext i1 @_ZNK24cmCustomCommandGenerator24HasOnlyEmptyCommandLinesEv(ptr noundef nonnull readonly align 8 captures(none) dereferenceable(352) %0) local_unnamed_addr #9 align 2 {
  %2 = getelementptr inbounds nuw i8, ptr %0, i64 120
  %3 = load ptr, ptr %2, align 8, !tbaa !81
  %4 = getelementptr inbounds nuw i8, ptr %0, i64 128
  %5 = load ptr, ptr %4, align 8, !tbaa !81
  %.not30 = icmp eq ptr %3, %5
  br i1 %.not30, label %.thread, label %.lr.ph34

.lr.ph34:                                         ; preds = %1, %._crit_edge
  %.sroa.020.031 = phi ptr [ %14, %._crit_edge ], [ %3, %1 ]
  %6 = load ptr, ptr %.sroa.020.031, align 8, !tbaa !82
  %7 = getelementptr inbounds nuw i8, ptr %.sroa.020.031, i64 8
  %8 = load ptr, ptr %7, align 8, !tbaa !82
  %.not2428 = icmp eq ptr %6, %8
  br i1 %.not2428, label %._crit_edge, label %.lr.ph

9:                                                ; preds = %.lr.ph
  %10 = getelementptr inbounds nuw i8, ptr %.sroa.016.029, i64 32
  %.not24 = icmp eq ptr %10, %8
  br i1 %.not24, label %._crit_edge, label %.lr.ph

.lr.ph:                                           ; preds = %.lr.ph34, %9
  %.sroa.016.029 = phi ptr [ %10, %9 ], [ %6, %.lr.ph34 ]
  %11 = getelementptr inbounds nuw i8, ptr %.sroa.016.029, i64 8
  %12 = load i64, ptr %11, align 8, !tbaa !49
  %13 = icmp eq i64 %12, 0
  br i1 %13, label %9, label %.thread

._crit_edge:                                      ; preds = %9, %.lr.ph34
  %14 = getelementptr inbounds nuw i8, ptr %.sroa.020.031, i64 24
  %.not = icmp eq ptr %14, %5
  br i1 %.not, label %.thread, label %.lr.ph34

.thread:                                          ; preds = %._crit_edge, %.lr.ph, %1
  %.not27 = phi i1 [ true, %1 ], [ false, %.lr.ph ], [ true, %._crit_edge ]
  ret i1 %.not27
}